target datalayout = "e-m:e-p270:32:32-p271:32:32-p272:64:64-i64:64-i128:128-f80:128-n8:16:32:64-S128"
target triple = "x86_64-pc-linux-gnu"

@VP8TransformDC = hidden global ptr null, align 8

; Function Attrs: nounwind uwtable
define internal void @TransformDCUV_C(ptr noalias noundef %0, ptr noalias noundef %1) #0 {
  %3 = alloca ptr, align 8
  %4 = alloca ptr, align 8
  store ptr %0, ptr %3, align 8, !tbaa !7
  store ptr %1, ptr %4, align 8, !tbaa !16
  %5 = load ptr, ptr %3, align 8, !tbaa !7
  %6 = getelementptr inbounds i16, ptr %5, i64 0
  %7 = load i16, ptr %6, align 2, !tbaa !11
  %8 = icmp ne i16 %7, 0
  br i1 %8, label %9, label %14

9:                                                ; preds = %2
  %10 = load ptr, ptr @VP8TransformDC, align 8, !tbaa !3
  %11 = load ptr, ptr %3, align 8, !tbaa !7
  %12 = getelementptr inbounds i16, ptr %11, i64 0
  %13 = load ptr, ptr %4, align 8, !tbaa !16
  call void %10(ptr noundef %12, ptr noundef %13)
  br label %14

14:                                               ; preds = %9, %2
  %15 = load ptr, ptr %3, align 8, !tbaa !7
  %16 = getelementptr inbounds i16, ptr %15, i64 16
  %17 = load i16, ptr %16, align 2, !tbaa !11
  %18 = icmp ne i16 %17, 0
  br i1 %18, label %19, label %25

19:                                               ; preds = %14
  %20 = load ptr, ptr @VP8TransformDC, align 8, !tbaa !3
  %21 = load ptr, ptr %3, align 8, !tbaa !7
  %22 = getelementptr inbounds i16, ptr %21, i64 16
  %23 = load ptr, ptr %4, align 8, !tbaa !16
  %24 = getelementptr inbounds i8, ptr %23, i64 4
  call void %20(ptr noundef %22, ptr noundef %24)
  br label %25

25:                                               ; preds = %19, %14
  %26 = load ptr, ptr %3, align 8, !tbaa !7
  %27 = getelementptr inbounds i16, ptr %26, i64 32
  %28 = load i16, ptr %27, align 2, !tbaa !11
  %29 = icmp ne i16 %28, 0
  br i1 %29, label %30, label %36

30:                                               ; preds = %25
  %31 = load ptr, ptr @VP8TransformDC, align 8, !tbaa !3
  %32 = load ptr, ptr %3, align 8, !tbaa !7
  %33 = getelementptr inbounds i16, ptr %32, i64 32
  %34 = load ptr, ptr %4, align 8, !tbaa !16
  %35 = getelementptr inbounds i8, ptr %34, i64 128
  call void %31(ptr noundef %33, ptr noundef %35)
  br label %36

36:                                               ; preds = %30, %25
  %37 = load ptr, ptr %3, align 8, !tbaa !7
  %38 = getelementptr inbounds i16, ptr %37, i64 48
  %39 = load i16, ptr %38, align 2, !tbaa !11
  %40 = icmp ne i16 %39, 0
  br i1 %40, label %41, label %48

41:                                               ; preds = %36
  %42 = load ptr, ptr @VP8TransformDC, align 8, !tbaa !3
  %43 = load ptr, ptr %3, align 8, !tbaa !7
  %44 = getelementptr inbounds i16, ptr %43, i64 48
  %45 = load ptr, ptr %4, align 8, !tbaa !16
  %46 = getelementptr inbounds i8, ptr %45, i64 128
  %47 = getelementptr inbounds i8, ptr %46, i64 4
  call void %42(ptr noundef %44, ptr noundef %47)
  br label %48

48:                                               ; preds = %41, %36
  ret void
}