; Function Attrs: nounwind uwtable
define internal void @TransformDCUV_C(ptr noalias noundef %0, ptr noalias noundef %1) #0 {
  %3 = load i16, ptr %0, align 2, !tbaa !7
  %.not = icmp eq i16 %3, 0
  br i1 %.not, label %6, label %4

4:                                                ; preds = %2
  %5 = load ptr, ptr @VP8TransformDC, align 8, !tbaa !3
  tail call void %5(ptr noundef nonnull %0, ptr noundef %1) #12
  br label %6

6:                                                ; preds = %4, %2
  %7 = getelementptr inbounds nuw i8, ptr %0, i64 32
  %8 = load i16, ptr %7, align 2, !tbaa !7
  %.not12 = icmp eq i16 %8, 0
  br i1 %.not12, label %12, label %9

9:                                                ; preds = %6
  %10 = load ptr, ptr @VP8TransformDC, align 8, !tbaa !3
  %11 = getelementptr inbounds nuw i8, ptr %1, i64 4
  tail call void %10(ptr noundef nonnull %7, ptr noundef nonnull %11) #12
  br label %12

12:                                               ; preds = %9, %6
  %13 = getelementptr inbounds nuw i8, ptr %0, i64 64
  %14 = load i16, ptr %13, align 2, !tbaa !7
  %.not13 = icmp eq i16 %14, 0
  br i1 %.not13, label %18, label %15

15:                                               ; preds = %12
  %16 = load ptr, ptr @VP8TransformDC, align 8, !tbaa !3
  %17 = getelementptr inbounds nuw i8, ptr %1, i64 128
  tail call void %16(ptr noundef nonnull %13, ptr noundef nonnull %17) #12
  br label %18

18:                                               ; preds = %15, %12
  %19 = getelementptr inbounds nuw i8, ptr %0, i64 96
  %20 = load i16, ptr %19, align 2, !tbaa !7
  %.not14 = icmp eq i16 %20, 0
  br i1 %.not14, label %24, label %21

21:                                               ; preds = %18
  %22 = load ptr, ptr @VP8TransformDC, align 8, !tbaa !3
  %23 = getelementptr inbounds nuw i8, ptr %1, i64 132
  tail call void %22(ptr noundef nonnull %19, ptr noundef nonnull %23) #12
  br label %24

24:                                               ; preds = %21, %18
  ret void
}